target datalayout = "e-m:e-p270:32:32-p271:32:32-p272:64:64-i64:64-i128:128-f80:128-n8:16:32:64-S128"
target triple = "x86_64-pc-linux-gnu"

%struct.parResultsMaster = type { i32, i32, [10 x %struct.contractType] }
%struct.contractType = type { i32, i32, i32, i32, i32 }

; Function Attrs: mustprogress nounwind uwtable
define void @_Z14CalcOverTricksiiiiP16parResultsMaster(i32 noundef %0, i32 noundef %1, i32 noundef %2, i32 noundef %3, ptr noundef %4) #4 {
  %6 = alloca i32, align 4
  %7 = alloca i32, align 4
  %8 = alloca i32, align 4
  %9 = alloca i32, align 4
  %10 = alloca ptr, align 8
  store i32 %0, ptr %6, align 4
  store i32 %1, ptr %7, align 4
  store i32 %2, ptr %8, align 4
  store i32 %3, ptr %9, align 4
  store ptr %4, ptr %10, align 8
  %11 = load i32, ptr %8, align 4
  %12 = sub nsw i32 %11, 6
  switch i32 %12, label %179 [
    i32 5, label %13
    i32 4, label %65
    i32 3, label %117
    i32 2, label %155
  ]

13:                                               ; preds = %5
  %14 = load i32, ptr %7, align 4
  %15 = icmp eq i32 %14, 3
  br i1 %15, label %16, label %26

16:                                               ; preds = %13
  %17 = load ptr, ptr %10, align 8
  %18 = load i32, ptr %6, align 4
  %19 = sext i32 %18 to i64
  %20 = getelementptr inbounds %struct.parResultsMaster, ptr %17, i64 %19
  %21 = getelementptr inbounds nuw %struct.parResultsMaster, ptr %20, i32 0, i32 2
  %22 = load i32, ptr %9, align 4
  %23 = sext i32 %22 to i64
  %24 = getelementptr inbounds [10 x %struct.contractType], ptr %21, i64 0, i64 %23
  %25 = getelementptr inbounds nuw %struct.contractType, ptr %24, i32 0, i32 1
  store i32 3, ptr %25, align 4
  br label %64

26:                                               ; preds = %13
  %27 = load i32, ptr %7, align 4
  %28 = icmp eq i32 %27, 2
  br i1 %28, label %29, label %39

29:                                               ; preds = %26
  %30 = load ptr, ptr %10, align 8
  %31 = load i32, ptr %6, align 4
  %32 = sext i32 %31 to i64
  %33 = getelementptr inbounds %struct.parResultsMaster, ptr %30, i64 %32
  %34 = getelementptr inbounds nuw %struct.parResultsMaster, ptr %33, i32 0, i32 2
  %35 = load i32, ptr %9, align 4
  %36 = sext i32 %35 to i64
  %37 = getelementptr inbounds [10 x %struct.contractType], ptr %34, i64 0, i64 %36
  %38 = getelementptr inbounds nuw %struct.contractType, ptr %37, i32 0, i32 1
  store i32 2, ptr %38, align 4
  br label %63

39:                                               ; preds = %26
  %40 = load i32, ptr %7, align 4
  %41 = icmp eq i32 %40, 1
  br i1 %41, label %42, label %52

42:                                               ; preds = %39
  %43 = load ptr, ptr %10, align 8
  %44 = load i32, ptr %6, align 4
  %45 = sext i32 %44 to i64
  %46 = getelementptr inbounds %struct.parResultsMaster, ptr %43, i64 %45
  %47 = getelementptr inbounds nuw %struct.parResultsMaster, ptr %46, i32 0, i32 2
  %48 = load i32, ptr %9, align 4
  %49 = sext i32 %48 to i64
  %50 = getelementptr inbounds [10 x %struct.contractType], ptr %47, i64 0, i64 %49
  %51 = getelementptr inbounds nuw %struct.contractType, ptr %50, i32 0, i32 1
  store i32 1, ptr %51, align 4
  br label %62

52:                                               ; preds = %39
  %53 = load ptr, ptr %10, align 8
  %54 = load i32, ptr %6, align 4
  %55 = sext i32 %54 to i64
  %56 = getelementptr inbounds %struct.parResultsMaster, ptr %53, i64 %55
  %57 = getelementptr inbounds nuw %struct.parResultsMaster, ptr %56, i32 0, i32 2
  %58 = load i32, ptr %9, align 4
  %59 = sext i32 %58 to i64
  %60 = getelementptr inbounds [10 x %struct.contractType], ptr %57, i64 0, i64 %59
  %61 = getelementptr inbounds nuw %struct.contractType, ptr %60, i32 0, i32 1
  store i32 0, ptr %61, align 4
  br label %62

62:                                               ; preds = %52, %42
  br label %63

63:                                               ; preds = %62, %29
  br label %64

64:                                               ; preds = %63, %16
  br label %189

65:                                               ; preds = %5
  %66 = load i32, ptr %7, align 4
  %67 = icmp eq i32 %66, 3
  br i1 %67, label %68, label %78

68:                                               ; preds = %65
  %69 = load ptr, ptr %10, align 8
  %70 = load i32, ptr %6, align 4
  %71 = sext i32 %70 to i64
  %72 = getelementptr inbounds %struct.parResultsMaster, ptr %69, i64 %71
  %73 = getelementptr inbounds nuw %struct.parResultsMaster, ptr %72, i32 0, i32 2
  %74 = load i32, ptr %9, align 4
  %75 = sext i32 %74 to i64
  %76 = getelementptr inbounds [10 x %struct.contractType], ptr %73, i64 0, i64 %75
  %77 = getelementptr inbounds nuw %struct.contractType, ptr %76, i32 0, i32 1
  store i32 3, ptr %77, align 4
  br label %116

78:                                               ; preds = %65
  %79 = load i32, ptr %7, align 4
  %80 = icmp eq i32 %79, 2
  br i1 %80, label %81, label %91

81:                                               ; preds = %78
  %82 = load ptr, ptr %10, align 8
  %83 = load i32, ptr %6, align 4
  %84 = sext i32 %83 to i64
  %85 = getelementptr inbounds %struct.parResultsMaster, ptr %82, i64 %84
  %86 = getelementptr inbounds nuw %struct.parResultsMaster, ptr %85, i32 0, i32 2
  %87 = load i32, ptr %9, align 4
  %88 = sext i32 %87 to i64
  %89 = getelementptr inbounds [10 x %struct.contractType], ptr %86, i64 0, i64 %88
  %90 = getelementptr inbounds nuw %struct.contractType, ptr %89, i32 0, i32 1
  store i32 2, ptr %90, align 4
  br label %115

91:                                               ; preds = %78
  %92 = load i32, ptr %7, align 4
  %93 = icmp eq i32 %92, 1
  br i1 %93, label %94, label %104

94:                                               ; preds = %91
  %95 = load ptr, ptr %10, align 8
  %96 = load i32, ptr %6, align 4
  %97 = sext i32 %96 to i64
  %98 = getelementptr inbounds %struct.parResultsMaster, ptr %95, i64 %97
  %99 = getelementptr inbounds nuw %struct.parResultsMaster, ptr %98, i32 0, i32 2
  %100 = load i32, ptr %9, align 4
  %101 = sext i32 %100 to i64
  %102 = getelementptr inbounds [10 x %struct.contractType], ptr %99, i64 0, i64 %101
  %103 = getelementptr inbounds nuw %struct.contractType, ptr %102, i32 0, i32 1
  store i32 1, ptr %103, align 4
  br label %114

104:                                              ; preds = %91
  %105 = load ptr, ptr %10, align 8
  %106 = load i32, ptr %6, align 4
  %107 = sext i32 %106 to i64
  %108 = getelementptr inbounds %struct.parResultsMaster, ptr %105, i64 %107
  %109 = getelementptr inbounds nuw %struct.parResultsMaster, ptr %108, i32 0, i32 2
  %110 = load i32, ptr %9, align 4
  %111 = sext i32 %110 to i64
  %112 = getelementptr inbounds [10 x %struct.contractType], ptr %109, i64 0, i64 %111
  %113 = getelementptr inbounds nuw %struct.contractType, ptr %112, i32 0, i32 1
  store i32 0, ptr %113, align 4
  br label %114

114:                                              ; preds = %104, %94
  br label %115

115:                                              ; preds = %114, %81
  br label %116

116:                                              ; preds = %115, %68
  br label %189

117:                                              ; preds = %5
  %118 = load i32, ptr %7, align 4
  %119 = icmp eq i32 %118, 2
  br i1 %119, label %120, label %130

120:                                              ; preds = %117
  %121 = load ptr, ptr %10, align 8
  %122 = load i32, ptr %6, align 4
  %123 = sext i32 %122 to i64
  %124 = getelementptr inbounds %struct.parResultsMaster, ptr %121, i64 %123
  %125 = getelementptr inbounds nuw %struct.parResultsMaster, ptr %124, i32 0, i32 2
  %126 = load i32, ptr %9, align 4
  %127 = sext i32 %126 to i64
  %128 = getelementptr inbounds [10 x %struct.contractType], ptr %125, i64 0, i64 %127
  %129 = getelementptr inbounds nuw %struct.contractType, ptr %128, i32 0, i32 1
  store i32 2, ptr %129, align 4
  br label %154

130:                                              ; preds = %117
  %131 = load i32, ptr %7, align 4
  %132 = icmp eq i32 %131, 1
  br i1 %132, label %133, label %143

133:                                              ; preds = %130
  %134 = load ptr, ptr %10, align 8
  %135 = load i32, ptr %6, align 4
  %136 = sext i32 %135 to i64
  %137 = getelementptr inbounds %struct.parResultsMaster, ptr %134, i64 %136
  %138 = getelementptr inbounds nuw %struct.parResultsMaster, ptr %137, i32 0, i32 2
  %139 = load i32, ptr %9, align 4
  %140 = sext i32 %139 to i64
  %141 = getelementptr inbounds [10 x %struct.contractType], ptr %138, i64 0, i64 %140
  %142 = getelementptr inbounds nuw %struct.contractType, ptr %141, i32 0, i32 1
  store i32 1, ptr %142, align 4
  br label %153

143:                                              ; preds = %130
  %144 = load ptr, ptr %10, align 8
  %145 = load i32, ptr %6, align 4
  %146 = sext i32 %145 to i64
  %147 = getelementptr inbounds %struct.parResultsMaster, ptr %144, i64 %146
  %148 = getelementptr inbounds nuw %struct.parResultsMaster, ptr %147, i32 0, i32 2
  %149 = load i32, ptr %9, align 4
  %150 = sext i32 %149 to i64
  %151 = getelementptr inbounds [10 x %struct.contractType], ptr %148, i64 0, i64 %150
  %152 = getelementptr inbounds nuw %struct.contractType, ptr %151, i32 0, i32 1
  store i32 0, ptr %152, align 4
  br label %153

153:                                              ; preds = %143, %133
  br label %154

154:                                              ; preds = %153, %120
  br label %189

155:                                              ; preds = %5
  %156 = load i32, ptr %7, align 4
  %157 = icmp eq i32 %156, 1
  br i1 %157, label %158, label %168

158:                                              ; preds = %155
  %159 = load ptr, ptr %10, align 8
  %160 = load i32, ptr %6, align 4
  %161 = sext i32 %160 to i64
  %162 = getelementptr inbounds %struct.parResultsMaster, ptr %159, i64 %161
  %163 = getelementptr inbounds nuw %struct.parResultsMaster, ptr %162, i32 0, i32 2
  %164 = load i32, ptr %9, align 4
  %165 = sext i32 %164 to i64
  %166 = getelementptr inbounds [10 x %struct.contractType], ptr %163, i64 0, i64 %165
  %167 = getelementptr inbounds nuw %struct.contractType, ptr %166, i32 0, i32 1
  store i32 1, ptr %167, align 4
  br label %178

168:                                              ; preds = %155
  %169 = load ptr, ptr %10, align 8
  %170 = load i32, ptr %6, align 4
  %171 = sext i32 %170 to i64
  %172 = getelementptr inbounds %struct.parResultsMaster, ptr %169, i64 %171
  %173 = getelementptr inbounds nuw %struct.parResultsMaster, ptr %172, i32 0, i32 2
  %174 = load i32, ptr %9, align 4
  %175 = sext i32 %174 to i64
  %176 = getelementptr inbounds [10 x %struct.contractType], ptr %173, i64 0, i64 %175
  %177 = getelementptr inbounds nuw %struct.contractType, ptr %176, i32 0, i32 1
  store i32 0, ptr %177, align 4
  br label %178

178:                                              ; preds = %168, %158
  br label %189

179:                                              ; preds = %5
  %180 = load ptr, ptr %10, align 8
  %181 = load i32, ptr %6, align 4
  %182 = sext i32 %181 to i64
  %183 = getelementptr inbounds %struct.parResultsMaster, ptr %180, i64 %182
  %184 = getelementptr inbounds nuw %struct.parResultsMaster, ptr %183, i32 0, i32 2
  %185 = load i32, ptr %9, align 4
  %186 = sext i32 %185 to i64
  %187 = getelementptr inbounds [10 x %struct.contractType], ptr %184, i64 0, i64 %186
  %188 = getelementptr inbounds nuw %struct.contractType, ptr %187, i32 0, i32 1
  store i32 0, ptr %188, align 4
  br label %189

189:                                              ; preds = %179, %178, %154, %116, %64
  ret void
}