; Function Attrs: mustprogress nofree norecurse nosync nounwind willreturn memory(argmem: write) uwtable
define void @_Z14CalcOverTricksiiiiP16parResultsMaster(i32 noundef %0, i32 noundef %1, i32 noundef %2, i32 noundef %3, ptr noundef writeonly captures(none) %4) local_unnamed_addr #9 {
  switch i32 %2, label %36 [
    i32 11, label %6
    i32 10, label %14
    i32 9, label %22
    i32 8, label %29
  ]

6:                                                ; preds = %5
  %7 = sext i32 %0 to i64
  %8 = sext i32 %3 to i64
  %9 = getelementptr inbounds %struct.parResultsMaster, ptr %4, i64 %7, i32 2, i64 %8, i32 1
  switch i32 %1, label %13 [
    i32 3, label %10
    i32 2, label %11
    i32 1, label %12
  ]

10:                                               ; preds = %6
  store i32 3, ptr %9, align 4
  br label %40

11:                                               ; preds = %6
  store i32 2, ptr %9, align 4
  br label %40

12:                                               ; preds = %6
  store i32 1, ptr %9, align 4
  br label %40

13:                                               ; preds = %6
  store i32 0, ptr %9, align 4
  br label %40

14:                                               ; preds = %5
  %15 = sext i32 %0 to i64
  %16 = sext i32 %3 to i64
  %17 = getelementptr inbounds %struct.parResultsMaster, ptr %4, i64 %15, i32 2, i64 %16, i32 1
  switch i32 %1, label %21 [
    i32 3, label %18
    i32 2, label %19
    i32 1, label %20
  ]

18:                                               ; preds = %14
  store i32 3, ptr %17, align 4
  br label %40

19:                                               ; preds = %14
  store i32 2, ptr %17, align 4
  br label %40

20:                                               ; preds = %14
  store i32 1, ptr %17, align 4
  br label %40

21:                                               ; preds = %14
  store i32 0, ptr %17, align 4
  br label %40

22:                                               ; preds = %5
  %23 = sext i32 %0 to i64
  %24 = sext i32 %3 to i64
  %25 = getelementptr inbounds %struct.parResultsMaster, ptr %4, i64 %23, i32 2, i64 %24, i32 1
  switch i32 %1, label %28 [
    i32 2, label %26
    i32 1, label %27
  ]

26:                                               ; preds = %22
  store i32 2, ptr %25, align 4
  br label %40

27:                                               ; preds = %22
  store i32 1, ptr %25, align 4
  br label %40

28:                                               ; preds = %22
  store i32 0, ptr %25, align 4
  br label %40

29:                                               ; preds = %5
  %30 = icmp eq i32 %1, 1
  %31 = sext i32 %0 to i64
  %32 = sext i32 %3 to i64
  %33 = getelementptr inbounds %struct.parResultsMaster, ptr %4, i64 %31, i32 2, i64 %32, i32 1
  br i1 %30, label %34, label %35

34:                                               ; preds = %29
  store i32 1, ptr %33, align 4
  br label %40

35:                                               ; preds = %29
  store i32 0, ptr %33, align 4
  br label %40

36:                                               ; preds = %5
  %37 = sext i32 %0 to i64
  %38 = sext i32 %3 to i64
  %39 = getelementptr inbounds %struct.parResultsMaster, ptr %4, i64 %37, i32 2, i64 %38, i32 1
  store i32 0, ptr %39, align 4
  br label %40

40:                                               ; preds = %34, %35, %26, %28, %27, %18, %20, %21, %19, %10, %12, %13, %11, %36
  ret void
}